Certificate Request:
    Data:
        Version: 0 (0x0)
        Subject: C=FR, ST=IDF, L=Paris, O=Local NODE-OPCUA Certificate Authority, CN=NodeOPCUA-CA
        Subject Public Key Info:
            Public Key Algorithm: rsaEncryption
                Public-Key: (2048 bit)
                Modulus:
                    00:d2:00:d8:ca:72:6e:10:17:1c:03:df:e0:e1:ff:
                    7d:59:bc:9e:da:e3:d4:63:bd:a9:48:c1:6d:65:ad:
                    0d:ca:3a:af:cd:5f:11:06:35:91:a3:3d:00:44:d8:
                    33:d3:5f:81:72:7b:b8:0f:c1:23:e1:8a:2d:a9:1f:
                    6f:5a:01:7c:c6:99:27:17:16:cb:5e:69:98:52:ec:
                    8e:bc:97:cb:6f:de:c1:86:4a:c5:92:3b:1f:4f:b5:
                    2b:e5:1d:3e:5a:3c:8a:fe:b6:6c:7f:00:a4:4c:5b:
                    9b:23:d4:17:ee:a1:ba:f1:84:58:3a:85:a9:3b:91:
                    50:27:7a:c0:0c:5a:66:6a:84:f7:0a:ff:84:49:77:
                    de:55:63:21:f8:36:95:a2:d6:5f:78:ad:fa:fe:35:
                    05:8c:6d:f3:ea:0a:54:2a:98:32:36:f0:6c:1e:38:
                    1f:2f:64:6f:83:bc:3e:45:6e:54:6c:09:ee:c5:6f:
                    a8:96:71:e8:11:62:63:f8:48:a6:df:93:01:09:5b:
                    b2:6d:02:bb:20:fd:5a:23:c7:56:e4:a0:3c:d2:af:
                    15:15:01:79:29:45:5a:7a:da:ed:a4:a0:5f:1b:25:
                    d6:ab:79:69:e2:b2:27:32:39:87:d1:6c:41:ab:bb:
                    ff:3a:d1:92:c4:b4:54:bc:64:96:5b:a1:d2:85:0d:
                    52:13
                Exponent: 65537 (0x10001)
        Attributes:
        Requested Extensions:
            X509v3 Basic Constraints: critical
                CA:FALSE
            X509v3 Key Usage: 
                Digital Signature, Non Repudiation, Key Encipherment, Data Encipherment, Key Agreement
            X509v3 Extended Key Usage: critical
                TLS Web Server Authentication, TLS Web Client Authentication
            X509v3 Subject Alternative Name: 
                URI:undefined
            Netscape Comment: 
                CA Generated by Node-OPCUA Certificate utility using openssl
    Signature Algorithm: sha256WithRSAEncryption
         2e:44:e8:1e:99:3d:ff:4f:dc:a5:63:1d:a0:13:83:9a:53:7b:
         74:36:19:84:9e:d4:dc:c9:4a:c5:12:8f:06:d7:20:db:5e:c7:
         6b:3a:7d:ca:ca:0f:1e:75:31:11:98:e1:77:9c:2e:6c:96:c8:
         55:b2:55:04:e5:4b:dd:3b:b5:9c:00:22:b0:e6:08:10:f7:0a:
         32:12:13:18:0d:6e:70:f9:fa:17:1e:b9:8b:c5:53:c9:74:fc:
         a2:62:2a:6f:f3:9f:c5:03:be:95:29:8f:47:14:c6:43:72:77:
         0b:71:8d:20:90:9f:c9:01:dd:40:12:12:19:f4:cc:f0:44:bc:
         59:7f:c6:a5:8b:7f:f4:26:c4:35:66:2b:ed:5f:b1:c2:3d:8d:
         60:f6:80:71:2e:ed:77:1b:91:e3:ab:f8:ba:31:ec:14:86:4d:
         16:c5:d1:6d:3e:cc:82:85:ad:2a:ba:cf:8e:0b:52:78:0d:79:
         49:ea:8c:6f:33:75:67:ef:d9:b5:cb:44:ad:a9:08:c5:40:21:
         fb:21:34:ac:c9:99:c1:b2:bb:ff:9a:84:b8:d7:4b:cd:b2:14:
         e0:5a:2b:89:2f:fb:7a:08:04:59:4e:10:7c:e0:05:0d:cb:fe:
         10:fb:1c:5a:6f:21:87:62:d3:fa:7a:b6:e0:94:b1:11:c8:ad:
         ca:7d:da:b8
-----BEGIN CERTIFICATE REQUEST-----
MIIDbTCCAlUCAQAwczELMAkGA1UEBhMCRlIxDDAKBgNVBAgTA0lERjEOMAwGA1UE
BxMFUGFyaXMxLzAtBgNVBAoTJkxvY2FsIE5PREUtT1BDVUEgQ2VydGlmaWNhdGUg
QXV0aG9yaXR5MRUwEwYDVQQDEwxOb2RlT1BDVUEtQ0EwggEiMA0GCSqGSIb3DQEB
AQUAA4IBDwAwggEKAoIBAQDSANjKcm4QFxwD3+Dh/31ZvJ7a49RjvalIwW1lrQ3K
Oq/NXxEGNZGjPQBE2DPTX4Fye7gPwSPhii2pH29aAXzGmScXFsteaZhS7I68l8tv
3sGGSsWSOx9PtSvlHT5aPIr+tmx/AKRMW5sj1BfuobrxhFg6hak7kVAnesAMWmZq
hPcK/4RJd95VYyH4NpWi1l94rfr+NQWMbfPqClQqmDI28GweOB8vZG+DvD5FblRs
Ce7Fb6iWcegRYmP4SKbfkwEJW7JtArsg/Vojx1bkoDzSrxUVAXkpRVp62u2koF8b
JdareWnisicyOYfRbEGru/860ZLEtFS8ZJZbodKFDVITAgMBAAGggbQwgbEGCSqG
SIb3DQEJDjGBozCBoDAMBgNVHRMBAf8EAjAAMAsGA1UdDwQEAwID+DAgBgNVHSUB
Af8EFjAUBggrBgEFBQcDAQYIKwYBBQUHAwIwFAYDVR0RBA0wC4YJdW5kZWZpbmVk
MEsGCWCGSAGG+EIBDQQ+FjxDQSBHZW5lcmF0ZWQgYnkgTm9kZS1PUENVQSBDZXJ0
aWZpY2F0ZSB1dGlsaXR5IHVzaW5nIG9wZW5zc2wwDQYJKoZIhvcNAQELBQADggEB
AC5E6B6ZPf9P3KVjHaATg5pTe3Q2GYSe1NzJSsUSjwbXINtex2s6fcrKDx51MRGY
4XecLmyWyFWyVQTlS907tZwAIrDmCBD3CjISExgNbnD5+hceuYvFU8l0/KJiKm/z
n8UDvpUpj0cUxkNydwtxjSCQn8kB3UASEhn0zPBEvFl/xqWLf/QmxDVmK+1fscI9
jWD2gHEu7XcbkeOr+Lox7BSGTRbF0W0+zIKFrSq6z44LUngNeUnqjG8zdWfv2bXL
RK2pCMVAIfshNKzJmcGyu/+ahLjXS82yFOBaK4kv+3oIBFlOEHzgBQ3L/hD7HFpv
IYdi0/p6tuCUsRHIrcp92rg=
-----END CERTIFICATE REQUEST-----
